target datalayout = "e-m:e-p270:32:32-p271:32:32-p272:64:64-i64:64-i128:128-f80:128-n8:16:32:64-S128"
target triple = "x86_64-unknown-linux-gnu"

; Function Attrs: mustprogress uwtable
define internal noundef zeroext i1 @_ZN5arrow8internal6detailL15ParseSubSecondsEPKcmNS_8TimeUnit4typeEPj(ptr noundef %s, i64 noundef %length, i32 noundef %unit, ptr noundef %out) #0 {
entry:
  %retval = alloca i1, align 1
  %s.addr = alloca ptr, align 8
  %length.addr = alloca i64, align 8
  %unit.addr = alloca i32, align 4
  %out.addr = alloca ptr, align 8
  %omitted = alloca i64, align 8
  %subseconds = alloca i32, align 4
  %success = alloca i8, align 1
  store ptr %s, ptr %s.addr, align 8
  store i64 %length, ptr %length.addr, align 8
  store i32 %unit, ptr %unit.addr, align 4
  store ptr %out, ptr %out.addr, align 8
  store i64 0, ptr %omitted, align 8
  %0 = load i32, ptr %unit.addr, align 4
  switch i32 %0, label %sw.default [
    i32 1, label %sw.bb
    i32 2, label %sw.bb5
    i32 3, label %sw.bb15
  ]

sw.bb:                                            ; preds = %entry
  %1 = load i64, ptr %length.addr, align 8
  %cmp = icmp ugt i64 %1, 3
  %lnot = xor i1 %cmp, true
  %lnot1 = xor i1 %lnot, true
  br i1 %lnot1, label %if.then, label %if.end

if.then:                                          ; preds = %sw.bb
  store i1 false, ptr %retval, align 1
  br label %return

if.end:                                           ; preds = %sw.bb
  %2 = load i64, ptr %length.addr, align 8
  %cmp2 = icmp ult i64 %2, 3
  br i1 %cmp2, label %if.then3, label %if.end4

if.then3:                                         ; preds = %if.end
  %3 = load i64, ptr %length.addr, align 8
  %sub = sub i64 3, %3
  store i64 %sub, ptr %omitted, align 8
  br label %if.end4

if.end4:                                          ; preds = %if.then3, %if.end
  br label %sw.epilog

sw.bb5:                                           ; preds = %entry
  %4 = load i64, ptr %length.addr, align 8
  %cmp6 = icmp ugt i64 %4, 6
  %lnot7 = xor i1 %cmp6, true
  %lnot8 = xor i1 %lnot7, true
  br i1 %lnot8, label %if.then9, label %if.end10

if.then9:                                         ; preds = %sw.bb5
  store i1 false, ptr %retval, align 1
  br label %return

if.end10:                                         ; preds = %sw.bb5
  %5 = load i64, ptr %length.addr, align 8
  %cmp11 = icmp ult i64 %5, 6
  br i1 %cmp11, label %if.then12, label %if.end14

if.then12:                                        ; preds = %if.end10
  %6 = load i64, ptr %length.addr, align 8
  %sub13 = sub i64 6, %6
  store i64 %sub13, ptr %omitted, align 8
  br label %if.end14

if.end14:                                         ; preds = %if.then12, %if.end10
  br label %sw.epilog

sw.bb15:                                          ; preds = %entry
  %7 = load i64, ptr %length.addr, align 8
  %cmp16 = icmp ugt i64 %7, 9
  %lnot17 = xor i1 %cmp16, true
  %lnot18 = xor i1 %lnot17, true
  br i1 %lnot18, label %if.then19, label %if.end20

if.then19:                                        ; preds = %sw.bb15
  store i1 false, ptr %retval, align 1
  br label %return

if.end20:                                         ; preds = %sw.bb15
  %8 = load i64, ptr %length.addr, align 8
  %cmp21 = icmp ult i64 %8, 9
  br i1 %cmp21, label %if.then22, label %if.end24

if.then22:                                        ; preds = %if.end20
  %9 = load i64, ptr %length.addr, align 8
  %sub23 = sub i64 9, %9
  store i64 %sub23, ptr %omitted, align 8
  br label %if.end24

if.end24:                                         ; preds = %if.then22, %if.end20
  br label %sw.epilog

sw.default:                                       ; preds = %entry
  store i1 false, ptr %retval, align 1
  br label %return

sw.epilog:                                        ; preds = %if.end24, %if.end14, %if.end4
  %10 = load i64, ptr %omitted, align 8
  %cmp25 = icmp eq i64 %10, 0
  %lnot26 = xor i1 %cmp25, true
  %lnot27 = xor i1 %lnot26, true
  br i1 %lnot27, label %if.then28, label %if.else

if.then28:                                        ; preds = %sw.epilog
  %11 = load ptr, ptr %s.addr, align 8
  %12 = load i64, ptr %length.addr, align 8
  %13 = load ptr, ptr %out.addr, align 8
  %call = call noundef zeroext i1 @_ZN5arrow8internal13ParseUnsignedEPKcmPj(ptr noundef %11, i64 noundef %12, ptr noundef %13)
  store i1 %call, ptr %retval, align 1
  br label %return

if.else:                                          ; preds = %sw.epilog
  store i32 0, ptr %subseconds, align 4
  %14 = load ptr, ptr %s.addr, align 8
  %15 = load i64, ptr %length.addr, align 8
  %call29 = call noundef zeroext i1 @_ZN5arrow8internal13ParseUnsignedEPKcmPj(ptr noundef %14, i64 noundef %15, ptr noundef %subseconds)
  %frombool = zext i1 %call29 to i8
  store i8 %frombool, ptr %success, align 1
  %16 = load i8, ptr %success, align 1
  %tobool = trunc i8 %16 to i1
  %lnot30 = xor i1 %tobool, true
  %lnot31 = xor i1 %lnot30, true
  br i1 %lnot31, label %if.then32, label %if.else50

if.then32:                                        ; preds = %if.else
  %17 = load i64, ptr %omitted, align 8
  switch i64 %17, label %sw.default48 [
    i64 1, label %sw.bb33
    i64 2, label %sw.bb34
    i64 3, label %sw.bb36
    i64 4, label %sw.bb38
    i64 5, label %sw.bb40
    i64 6, label %sw.bb42
    i64 7, label %sw.bb44
    i64 8, label %sw.bb46
  ]

sw.bb33:                                          ; preds = %if.then32
  %18 = load i32, ptr %subseconds, align 4
  %mul = mul i32 %18, 10
  %19 = load ptr, ptr %out.addr, align 8
  store i32 %mul, ptr %19, align 4
  br label %sw.epilog49

sw.bb34:                                          ; preds = %if.then32
  %20 = load i32, ptr %subseconds, align 4
  %mul35 = mul i32 %20, 100
  %21 = load ptr, ptr %out.addr, align 8
  store i32 %mul35, ptr %21, align 4
  br label %sw.epilog49

sw.bb36:                                          ; preds = %if.then32
  %22 = load i32, ptr %subseconds, align 4
  %mul37 = mul i32 %22, 1000
  %23 = load ptr, ptr %out.addr, align 8
  store i32 %mul37, ptr %23, align 4
  br label %sw.epilog49

sw.bb38:                                          ; preds = %if.then32
  %24 = load i32, ptr %subseconds, align 4
  %mul39 = mul i32 %24, 10000
  %25 = load ptr, ptr %out.addr, align 8
  store i32 %mul39, ptr %25, align 4
  br label %sw.epilog49

sw.bb40:                                          ; preds = %if.then32
  %26 = load i32, ptr %subseconds, align 4
  %mul41 = mul i32 %26, 100000
  %27 = load ptr, ptr %out.addr, align 8
  store i32 %mul41, ptr %27, align 4
  br label %sw.epilog49

sw.bb42:                                          ; preds = %if.then32
  %28 = load i32, ptr %subseconds, align 4
  %mul43 = mul i32 %28, 1000000
  %29 = load ptr, ptr %out.addr, align 8
  store i32 %mul43, ptr %29, align 4
  br label %sw.epilog49

sw.bb44:                                          ; preds = %if.then32
  %30 = load i32, ptr %subseconds, align 4
  %mul45 = mul i32 %30, 10000000
  %31 = load ptr, ptr %out.addr, align 8
  store i32 %mul45, ptr %31, align 4
  br label %sw.epilog49

sw.bb46:                                          ; preds = %if.then32
  %32 = load i32, ptr %subseconds, align 4
  %mul47 = mul i32 %32, 100000000
  %33 = load ptr, ptr %out.addr, align 8
  store i32 %mul47, ptr %33, align 4
  br label %sw.epilog49

sw.default48:                                     ; preds = %if.then32
  br label %sw.epilog49

sw.epilog49:                                      ; preds = %sw.default48, %sw.bb46, %sw.bb44, %sw.bb42, %sw.bb40, %sw.bb38, %sw.bb36, %sw.bb34, %sw.bb33
  store i1 true, ptr %retval, align 1
  br label %return

if.else50:                                        ; preds = %if.else
  store i1 false, ptr %retval, align 1
  br label %return

return:                                           ; preds = %if.else50, %sw.epilog49, %if.then28, %sw.default, %if.then19, %if.then9, %if.then
  %34 = load i1, ptr %retval, align 1
  ret i1 %34
}